target datalayout = "e-m:e-p270:32:32-p271:32:32-p272:64:64-i64:64-i128:128-f80:128-n8:16:32:64-S128"
target triple = "x86_64-pc-linux-gnu"

%"class.std::allocator" = type { i8 }
%class.DefaultRndNumGenerator = type { %class.AbsRndNumGenerator, i64, %"class.std::__cxx11::basic_string", ptr }
%class.AbsRndNumGenerator = type { ptr }
%"class.std::__cxx11::basic_string" = type { %"struct.std::__cxx11::basic_string<char>::_Alloc_hider", i64, %union.anon }
%"struct.std::__cxx11::basic_string<char>::_Alloc_hider" = type { ptr }
%union.anon = type { i64, [8 x i8] }

@.str = private unnamed_addr constant [1 x i8] zeroinitializer, align 1

; Function Attrs: mustprogress uwtable
define dso_local void @_ZN22DefaultRndNumGeneratorC2EmP8Sequence(ptr noundef nonnull align 8 dereferenceable(56) %0, i64 noundef %1, ptr noundef %2) unnamed_addr #4 align 2 personality ptr @__gxx_personality_v0 {
  %4 = alloca ptr, align 8
  %5 = alloca i64, align 8
  %6 = alloca ptr, align 8
  %7 = alloca %"class.std::allocator", align 1
  %8 = alloca ptr, align 8
  %9 = alloca i32, align 4
  store ptr %0, ptr %4, align 8
  store i64 %1, ptr %5, align 8
  store ptr %2, ptr %6, align 8
  %10 = load ptr, ptr %4, align 8
  call void @_ZN18AbsRndNumGeneratorC2Ev(ptr noundef nonnull align 8 dereferenceable(8) %10)
  store ptr getelementptr inbounds ({ [13 x ptr] }, ptr @_ZTV22DefaultRndNumGenerator, i32 0, i32 0, i32 2), ptr %10, align 8
  %11 = getelementptr inbounds %class.DefaultRndNumGenerator, ptr %10, i32 0, i32 1
  store i64 0, ptr %11, align 8
  %12 = getelementptr inbounds %class.DefaultRndNumGenerator, ptr %10, i32 0, i32 2
  call void @_ZNSaIcEC1Ev(ptr noundef nonnull align 1 dereferenceable(1) %7) #3
  invoke void @_ZNSt7__cxx1112basic_stringIcSt11char_traitsIcESaIcEEC1EPKcRKS3_(ptr noundef nonnull align 8 dereferenceable(32) %12, ptr noundef @.str, ptr noundef nonnull align 1 dereferenceable(1) %7)
          to label %13 unwind label %16

13:                                               ; preds = %3
  call void @_ZNSaIcED1Ev(ptr noundef nonnull align 1 dereferenceable(1) %7) #3
  %14 = getelementptr inbounds %class.DefaultRndNumGenerator, ptr %10, i32 0, i32 3
  %15 = load ptr, ptr %6, align 8
  store ptr %15, ptr %14, align 8
  ret void

16:                                               ; preds = %3
  %17 = landingpad { ptr, i32 }
          cleanup
  %18 = extractvalue { ptr, i32 } %17, 0
  store ptr %18, ptr %8, align 8
  %19 = extractvalue { ptr, i32 } %17, 1
  store i32 %19, ptr %9, align 4
  call void @_ZNSaIcED1Ev(ptr noundef nonnull align 1 dereferenceable(1) %7) #3
  call void @_ZN18AbsRndNumGeneratorD2Ev(ptr noundef nonnull align 8 dereferenceable(8) %10) #3
  br label %20

20:                                               ; preds = %16
  %21 = load ptr, ptr %8, align 8
  %22 = load i32, ptr %9, align 4
  %23 = insertvalue { ptr, i32 } poison, ptr %21, 0
  %24 = insertvalue { ptr, i32 } %23, i32 %22, 1
  resume { ptr, i32 } %24
}