; Function Attrs: mustprogress uwtable
define dso_local void @_ZN22DefaultRndNumGeneratorC2EmP8Sequence(ptr noundef nonnull align 8 dereferenceable(56) %0, i64 %1, ptr noundef %2) unnamed_addr #3 align 2 personality ptr @__gxx_personality_v0 {
  %4 = alloca %"class.std::allocator", align 1
  tail call void @_ZN18AbsRndNumGeneratorC2Ev(ptr noundef nonnull align 8 dereferenceable(8) %0)
  store ptr getelementptr inbounds ({ [13 x ptr] }, ptr @_ZTV22DefaultRndNumGenerator, i64 0, i32 0, i64 2), ptr %0, align 8
  %5 = getelementptr inbounds i8, ptr %0, i64 8
  store i64 0, ptr %5, align 8
  %6 = getelementptr inbounds i8, ptr %0, i64 16
  call void @_ZNSaIcEC1Ev(ptr noundef nonnull align 1 dereferenceable(1) %4) #11
  invoke void @_ZNSt7__cxx1112basic_stringIcSt11char_traitsIcESaIcEEC1EPKcRKS3_(ptr noundef nonnull align 8 dereferenceable(32) %6, ptr noundef nonnull @.str, ptr noundef nonnull align 1 dereferenceable(1) %4)
          to label %7 unwind label %9

7:                                                ; preds = %3
  call void @_ZNSaIcED1Ev(ptr noundef nonnull align 1 dereferenceable(1) %4) #11
  %8 = getelementptr inbounds i8, ptr %0, i64 48
  store ptr %2, ptr %8, align 8
  ret void

9:                                                ; preds = %3
  %10 = landingpad { ptr, i32 }
          cleanup
  call void @_ZNSaIcED1Ev(ptr noundef nonnull align 1 dereferenceable(1) %4) #11
  call void @_ZN18AbsRndNumGeneratorD2Ev(ptr noundef nonnull align 8 dereferenceable(8) %0) #11
  resume { ptr, i32 } %10
}